target datalayout = "e-m:e-p270:32:32-p271:32:32-p272:64:64-i64:64-i128:128-f80:128-n8:16:32:64-S128"
target triple = "x86_64-pc-linux-gnu"

%struct._cwd_state = type { ptr, i64 }
%struct._virtual_cwd_globals = type { %struct._cwd_state, i64, i64, i64, [1024 x ptr] }

@cwd_globals = hidden global %struct._virtual_cwd_globals zeroinitializer, align 8

; Function Attrs: nounwind uwtable
define dso_local ptr @virtual_getcwd_ex(ptr noundef %0) #0 {
  %2 = alloca ptr, align 8
  %3 = alloca ptr, align 8
  %4 = alloca ptr, align 8
  %5 = alloca ptr, align 8
  %6 = alloca i32, align 4
  store ptr %0, ptr %3, align 8, !tbaa !22
  call void @llvm.lifetime.start.p0(i64 8, ptr %4) #16
  store ptr @cwd_globals, ptr %4, align 8, !tbaa !24
  %7 = load ptr, ptr %4, align 8, !tbaa !24
  %8 = getelementptr inbounds nuw %struct._cwd_state, ptr %7, i32 0, i32 1
  %9 = load i64, ptr %8, align 8, !tbaa !13
  %10 = icmp eq i64 %9, 0
  br i1 %10, label %11, label %19

11:                                               ; preds = %1
  call void @llvm.lifetime.start.p0(i64 8, ptr %5) #16
  %12 = load ptr, ptr %3, align 8, !tbaa !22
  store i64 1, ptr %12, align 8, !tbaa !26
  %13 = call noalias ptr @_emalloc_8()
  store ptr %13, ptr %5, align 8, !tbaa !12
  %14 = load ptr, ptr %5, align 8, !tbaa !12
  %15 = getelementptr inbounds i8, ptr %14, i64 0
  store i8 47, ptr %15, align 1, !tbaa !4
  %16 = load ptr, ptr %5, align 8, !tbaa !12
  %17 = getelementptr inbounds i8, ptr %16, i64 1
  store i8 0, ptr %17, align 1, !tbaa !4
  %18 = load ptr, ptr %5, align 8, !tbaa !12
  store ptr %18, ptr %2, align 8
  store i32 1, ptr %6, align 4
  call void @llvm.lifetime.end.p0(i64 8, ptr %5) #16
  br label %35

19:                                               ; preds = %1
  %20 = load ptr, ptr %4, align 8, !tbaa !24
  %21 = getelementptr inbounds nuw %struct._cwd_state, ptr %20, i32 0, i32 0
  %22 = load ptr, ptr %21, align 8, !tbaa !7
  %23 = icmp ne ptr %22, null
  br i1 %23, label %26, label %24

24:                                               ; preds = %19
  %25 = load ptr, ptr %3, align 8, !tbaa !22
  store i64 0, ptr %25, align 8, !tbaa !26
  store ptr null, ptr %2, align 8
  store i32 1, ptr %6, align 4
  br label %35

26:                                               ; preds = %19
  %27 = load ptr, ptr %4, align 8, !tbaa !24
  %28 = getelementptr inbounds nuw %struct._cwd_state, ptr %27, i32 0, i32 1
  %29 = load i64, ptr %28, align 8, !tbaa !13
  %30 = load ptr, ptr %3, align 8, !tbaa !22
  store i64 %29, ptr %30, align 8, !tbaa !26
  %31 = load ptr, ptr %4, align 8, !tbaa !24
  %32 = getelementptr inbounds nuw %struct._cwd_state, ptr %31, i32 0, i32 0
  %33 = load ptr, ptr %32, align 8, !tbaa !7
  %34 = call noalias ptr @_estrdup(ptr noundef %33)
  store ptr %34, ptr %2, align 8
  store i32 1, ptr %6, align 4
  br label %35

35:                                               ; preds = %26, %24, %11
  call void @llvm.lifetime.end.p0(i64 8, ptr %4) #16
  %36 = load ptr, ptr %2, align 8
  ret ptr %36
}