; Function Attrs: nounwind uwtable
define dso_local noalias ptr @virtual_getcwd_ex(ptr noundef writeonly captures(none) initializes((0, 8)) %0) local_unnamed_addr #0 {
  %2 = load i64, ptr getelementptr inbounds nuw (i8, ptr @cwd_globals, i64 8), align 8, !tbaa !12
  %3 = icmp eq i64 %2, 0
  br i1 %3, label %4, label %7

4:                                                ; preds = %1
  store i64 1, ptr %0, align 8, !tbaa !22
  %5 = tail call noalias ptr @_emalloc_8() #22
  store i8 47, ptr %5, align 1, !tbaa !11
  %6 = getelementptr inbounds nuw i8, ptr %5, i64 1
  store i8 0, ptr %6, align 1, !tbaa !11
  br label %12

7:                                                ; preds = %1
  %8 = load ptr, ptr @cwd_globals, align 8, !tbaa !4
  %.not = icmp eq ptr %8, null
  br i1 %.not, label %9, label %10

9:                                                ; preds = %7
  store i64 0, ptr %0, align 8, !tbaa !22
  br label %12

10:                                               ; preds = %7
  store i64 %2, ptr %0, align 8, !tbaa !22
  %11 = tail call noalias ptr @_estrdup(ptr noundef nonnull %8) #22
  br label %12

12:                                               ; preds = %10, %9, %4
  %.0 = phi ptr [ %5, %4 ], [ %11, %10 ], [ null, %9 ]
  ret ptr %.0
}